target datalayout = "e-m:e-p270:32:32-p271:32:32-p272:64:64-i64:64-i128:128-f80:128-n8:16:32:64-S128"
target triple = "x86_64-pc-linux-gnu"

%struct.rb_symbols_t = type { i32, ptr, i64, i64 }
%struct.RBasic = type { i64, i64 }
%struct.RArray = type { %struct.RBasic, %union.anon.17 }
%union.anon.17 = type { %struct.anon.18 }
%struct.anon.18 = type { i64, %union.anon.19, ptr }
%union.anon.19 = type { i64 }

; Function Attrs: inlinehint nounwind sspstrong willreturn memory(read) uwtable
define internal i64 @RB_FL_TEST_RAW(i64 noundef %0, i64 noundef %1) #8 {
  %3 = alloca i64, align 8
  %4 = alloca i64, align 8
  store i64 %0, ptr %3, align 8, !tbaa !11
  store i64 %1, ptr %4, align 8, !tbaa !11
  %5 = load i64, ptr %3, align 8, !tbaa !11
  %6 = inttoptr i64 %5 to ptr
  %7 = getelementptr inbounds nuw %struct.RBasic, ptr %6, i32 0, i32 0
  %8 = load i64, ptr %7, align 8, !tbaa !93
  %9 = load i64, ptr %4, align 8, !tbaa !11
  %10 = and i64 %8, %9
  ret i64 %10
}

; Function Attrs: inlinehint nounwind sspstrong willreturn memory(read) uwtable
define internal i64 @RARRAY_EMBED_LEN(i64 noundef %0) #8 {
  %2 = alloca i64, align 8
  %3 = alloca i64, align 8
  store i64 %0, ptr %2, align 8, !tbaa !11
  call void @llvm.lifetime.start.p0(i64 8, ptr %3) #24
  %4 = load i64, ptr %2, align 8, !tbaa !11
  %5 = inttoptr i64 %4 to ptr
  %6 = getelementptr inbounds nuw %struct.RBasic, ptr %5, i32 0, i32 0
  %7 = load i64, ptr %6, align 8, !tbaa !93
  store i64 %7, ptr %3, align 8, !tbaa !11
  %8 = load i64, ptr %3, align 8, !tbaa !11
  %9 = and i64 %8, 4161536
  store i64 %9, ptr %3, align 8, !tbaa !11
  %10 = load i64, ptr %3, align 8, !tbaa !11
  %11 = lshr i64 %10, 15
  store i64 %11, ptr %3, align 8, !tbaa !11
  %12 = load i64, ptr %3, align 8, !tbaa !11
  call void @llvm.lifetime.end.p0(i64 8, ptr %3) #24
  ret i64 %12
}

; Function Attrs: inlinehint nounwind sspstrong willreturn memory(read) uwtable
define internal zeroext i1 @RB_FL_ANY_RAW(i64 noundef %0, i64 noundef %1) #8 {
  %3 = alloca i64, align 8
  %4 = alloca i64, align 8
  store i64 %0, ptr %3, align 8, !tbaa !11
  store i64 %1, ptr %4, align 8, !tbaa !11
  %5 = load i64, ptr %3, align 8, !tbaa !11
  %6 = load i64, ptr %4, align 8, !tbaa !11
  %7 = call i64 @RB_FL_TEST_RAW(i64 noundef %5, i64 noundef %6) #27
  %8 = icmp ne i64 %7, 0
  ret i1 %8
}

; Function Attrs: inlinehint nounwind sspstrong willreturn memory(none) uwtable
define internal zeroext i1 @RB_NIL_P(i64 noundef %0) #6 {
  %2 = alloca i64, align 8
  store i64 %0, ptr %2, align 8, !tbaa !11
  %3 = load i64, ptr %2, align 8, !tbaa !11
  %4 = icmp eq i64 %3, 4
  ret i1 %4
}

; Function Attrs: inlinehint nounwind sspstrong willreturn memory(read) uwtable
define internal i64 @rb_array_len(i64 noundef %0) #8 {
  %2 = alloca i64, align 8
  %3 = alloca i64, align 8
  store i64 %0, ptr %3, align 8, !tbaa !11
  %4 = load i64, ptr %3, align 8, !tbaa !11
  %5 = call zeroext i1 @RB_FL_ANY_RAW(i64 noundef %4, i64 noundef 8192) #27
  br i1 %5, label %6, label %9

6:                                                ; preds = %1
  %7 = load i64, ptr %3, align 8, !tbaa !11
  %8 = call i64 @RARRAY_EMBED_LEN(i64 noundef %7) #27
  store i64 %8, ptr %2, align 8
  br label %15

9:                                                ; preds = %1
  %10 = load i64, ptr %3, align 8, !tbaa !11
  %11 = inttoptr i64 %10 to ptr
  %12 = getelementptr inbounds nuw %struct.RArray, ptr %11, i32 0, i32 1
  %13 = getelementptr inbounds nuw %struct.anon.18, ptr %12, i32 0, i32 0
  %14 = load i64, ptr %13, align 8, !tbaa !22
  store i64 %14, ptr %2, align 8
  br label %15

15:                                               ; preds = %9, %6
  %16 = load i64, ptr %2, align 8
  ret i64 %16
}

; Function Attrs: nounwind sspstrong uwtable
define internal void @set_id_entry(ptr noundef %0, i32 noundef %1, i64 noundef %2, i64 noundef %3) #0 {
  %5 = alloca ptr, align 8
  %6 = alloca i32, align 4
  %7 = alloca i64, align 8
  %8 = alloca i64, align 8
  %9 = alloca i64, align 8
  %10 = alloca i64, align 8
  %11 = alloca i64, align 8
  store ptr %0, ptr %5, align 8, !tbaa !7
  store i32 %1, ptr %6, align 4, !tbaa !21
  store i64 %2, ptr %7, align 8, !tbaa !11
  store i64 %3, ptr %8, align 8, !tbaa !11
  call void @llvm.lifetime.start.p0(i64 8, ptr %9) #24
  %12 = load i32, ptr %6, align 4, !tbaa !21
  %13 = udiv i32 %12, 512
  %14 = zext i32 %13 to i64
  store i64 %14, ptr %9, align 8, !tbaa !11
  call void @llvm.lifetime.start.p0(i64 8, ptr %10) #24
  call void @llvm.lifetime.start.p0(i64 8, ptr %11) #24
  %15 = load ptr, ptr %5, align 8, !tbaa !7
  %16 = getelementptr inbounds nuw %struct.rb_symbols_t, ptr %15, i32 0, i32 2
  %17 = load i64, ptr %16, align 8, !tbaa !18
  store i64 %17, ptr %11, align 8, !tbaa !11
  %18 = load i64, ptr %9, align 8, !tbaa !11
  %19 = load i64, ptr %11, align 8, !tbaa !11
  %20 = call i64 @rb_array_len(i64 noundef %19) #27
  %21 = icmp uge i64 %18, %20
  br i1 %21, label %27, label %22

22:                                               ; preds = %4
  %23 = load i64, ptr %11, align 8, !tbaa !11
  %24 = load i64, ptr %9, align 8, !tbaa !11
  %25 = call i64 @rb_ary_entry(i64 noundef %23, i64 noundef %24) #27
  store i64 %25, ptr %10, align 8, !tbaa !11
  %26 = call zeroext i1 @RB_NIL_P(i64 noundef %25) #25
  br i1 %26, label %27, label %32

27:                                               ; preds = %22, %4
  %28 = call i64 @rb_ary_hidden_new(i64 noundef 1024)
  store i64 %28, ptr %10, align 8, !tbaa !11
  %29 = load i64, ptr %11, align 8, !tbaa !11
  %30 = load i64, ptr %9, align 8, !tbaa !11
  %31 = load i64, ptr %10, align 8, !tbaa !11
  call void @rb_ary_store(i64 noundef %29, i64 noundef %30, i64 noundef %31)
  br label %32

32:                                               ; preds = %27, %22
  %33 = load i32, ptr %6, align 4, !tbaa !21
  %34 = urem i32 %33, 512
  %35 = mul i32 %34, 2
  %36 = zext i32 %35 to i64
  store i64 %36, ptr %9, align 8, !tbaa !11
  %37 = load i64, ptr %10, align 8, !tbaa !11
  %38 = load i64, ptr %9, align 8, !tbaa !11
  %39 = add i64 %38, 0
  %40 = load i64, ptr %7, align 8, !tbaa !11
  call void @rb_ary_store(i64 noundef %37, i64 noundef %39, i64 noundef %40)
  %41 = load i64, ptr %10, align 8, !tbaa !11
  %42 = load i64, ptr %9, align 8, !tbaa !11
  %43 = add i64 %42, 1
  %44 = load i64, ptr %8, align 8, !tbaa !11
  call void @rb_ary_store(i64 noundef %41, i64 noundef %43, i64 noundef %44)
  call void @llvm.lifetime.end.p0(i64 8, ptr %11) #24
  call void @llvm.lifetime.end.p0(i64 8, ptr %10) #24
  call void @llvm.lifetime.end.p0(i64 8, ptr %9) #24
  ret void
}