; Function Attrs: nounwind sspstrong uwtable
define internal fastcc void @set_id_entry(i32 noundef %0, i64 noundef %1, i64 noundef %2) unnamed_addr #0 {
  %4 = lshr i32 %0, 9
  %5 = zext nneg i32 %4 to i64
  %6 = load i64, ptr getelementptr inbounds nuw (i8, ptr @ruby_global_symbols, i64 16), align 8, !tbaa !16
  %7 = inttoptr i64 %6 to ptr
  %8 = load i64, ptr %7, align 8, !tbaa !26
  %9 = and i64 %8, 8192
  %.not.i = icmp eq i64 %9, 0
  br i1 %.not.i, label %13, label %10

10:                                               ; preds = %3
  %11 = lshr i64 %8, 15
  %12 = and i64 %11, 127
  br label %rb_array_len.exit

13:                                               ; preds = %3
  %14 = getelementptr inbounds nuw i8, ptr %7, i64 16
  %15 = load i64, ptr %14, align 8, !tbaa !17
  br label %rb_array_len.exit

rb_array_len.exit:                                ; preds = %10, %13
  %.0.i = phi i64 [ %12, %10 ], [ %15, %13 ]
  %.not = icmp ugt i64 %.0.i, %5
  br i1 %.not, label %16, label %19

16:                                               ; preds = %rb_array_len.exit
  %17 = tail call i64 @rb_ary_entry(i64 noundef %6, i64 noundef %5) #21
  %18 = icmp eq i64 %17, 4
  br i1 %18, label %19, label %21

19:                                               ; preds = %16, %rb_array_len.exit
  %20 = tail call i64 @rb_ary_hidden_new(i64 noundef 1024) #19
  tail call void @rb_ary_store(i64 noundef %6, i64 noundef %5, i64 noundef %20) #19
  br label %21

21:                                               ; preds = %19, %16
  %.0 = phi i64 [ %20, %19 ], [ %17, %16 ]
  %22 = shl i32 %0, 1
  %23 = and i32 %22, 1022
  %24 = zext nneg i32 %23 to i64
  tail call void @rb_ary_store(i64 noundef %.0, i64 noundef %24, i64 noundef %1) #19
  %25 = or disjoint i64 %24, 1
  tail call void @rb_ary_store(i64 noundef %.0, i64 noundef %25, i64 noundef %2) #19
  ret void
}